target datalayout = "e-m:e-p270:32:32-p271:32:32-p272:64:64-i64:64-i128:128-f80:128-n8:16:32:64-S128"
target triple = "x86_64-pc-linux-gnu"

; Function Attrs: mustprogress uwtable
define dso_local void @_ZN5vcpkg6Checks14msg_check_exitERKNS_8LineInfoEbRKNS_15LocalizedStringE(ptr noundef nonnull align 8 dereferenceable(16) %0, i1 noundef zeroext %1, ptr noundef nonnull align 8 dereferenceable(32) %2) #0 {
  %4 = alloca ptr, align 8
  %5 = alloca i8, align 1
  %6 = alloca ptr, align 8
  store ptr %0, ptr %4, align 8, !tbaa !4
  %7 = zext i1 %1 to i8
  store i8 %7, ptr %5, align 1, !tbaa !22
  store ptr %2, ptr %6, align 8, !tbaa !31
  %8 = load i8, ptr %5, align 1, !tbaa !22, !range !26, !noundef !27
  %9 = trunc i8 %8 to i1
  br i1 %9, label %13, label %10

10:                                               ; preds = %3
  %11 = load ptr, ptr %4, align 8, !tbaa !4
  %12 = load ptr, ptr %6, align 8, !tbaa !31
  call void @_ZN5vcpkg6Checks21msg_exit_with_messageERKNS_8LineInfoERKNS_15LocalizedStringE(ptr noundef nonnull align 8 dereferenceable(16) %11, ptr noundef nonnull align 8 dereferenceable(32) %12) #20
  unreachable

13:                                               ; preds = %3
  ret void
}